target datalayout = "e-m:e-p270:32:32-p271:32:32-p272:64:64-i64:64-i128:128-f80:128-n8:16:32:64-S128"
target triple = "x86_64-pc-linux-gnu"

; Function Attrs: nounwind uwtable
define internal i32 @nsvg__getArgsPerElement(i8 noundef signext %0) #0 {
  %2 = alloca i32, align 4
  %3 = alloca i8, align 1
  store i8 %0, ptr %3, align 1, !tbaa !12
  %4 = load i8, ptr %3, align 1, !tbaa !12
  %5 = sext i8 %4 to i32
  switch i32 %5, label %12 [
    i32 118, label %6
    i32 86, label %6
    i32 104, label %6
    i32 72, label %6
    i32 109, label %7
    i32 77, label %7
    i32 108, label %7
    i32 76, label %7
    i32 116, label %7
    i32 84, label %7
    i32 113, label %8
    i32 81, label %8
    i32 115, label %8
    i32 83, label %8
    i32 99, label %9
    i32 67, label %9
    i32 97, label %10
    i32 65, label %10
    i32 122, label %11
    i32 90, label %11
  ]

6:                                                ; preds = %1, %1, %1, %1
  store i32 1, ptr %2, align 4
  br label %13

7:                                                ; preds = %1, %1, %1, %1, %1, %1
  store i32 2, ptr %2, align 4
  br label %13

8:                                                ; preds = %1, %1, %1, %1
  store i32 4, ptr %2, align 4
  br label %13

9:                                                ; preds = %1, %1
  store i32 6, ptr %2, align 4
  br label %13

10:                                               ; preds = %1, %1
  store i32 7, ptr %2, align 4
  br label %13

11:                                               ; preds = %1, %1
  store i32 0, ptr %2, align 4
  br label %13

12:                                               ; preds = %1
  store i32 -1, ptr %2, align 4
  br label %13

13:                                               ; preds = %12, %11, %10, %9, %8, %7, %6
  %14 = load i32, ptr %2, align 4
  ret i32 %14
}