; Function Attrs: mustprogress nofree norecurse nosync nounwind willreturn memory(none) uwtable
define internal fastcc range(i32 -1, 8) i32 @nsvg__getArgsPerElement(i8 noundef signext %0) unnamed_addr #3 {
  switch i8 %0, label %7 [
    i8 118, label %8
    i8 86, label %8
    i8 104, label %8
    i8 72, label %8
    i8 109, label %2
    i8 77, label %2
    i8 108, label %2
    i8 76, label %2
    i8 116, label %2
    i8 84, label %2
    i8 113, label %3
    i8 81, label %3
    i8 115, label %3
    i8 83, label %3
    i8 99, label %4
    i8 67, label %4
    i8 97, label %5
    i8 65, label %5
    i8 122, label %6
    i8 90, label %6
  ]

2:                                                ; preds = %1, %1, %1, %1, %1, %1
  br label %8

3:                                                ; preds = %1, %1, %1, %1
  br label %8

4:                                                ; preds = %1, %1
  br label %8

5:                                                ; preds = %1, %1
  br label %8

6:                                                ; preds = %1, %1
  br label %8

7:                                                ; preds = %1
  br label %8

8:                                                ; preds = %1, %1, %1, %1, %7, %6, %5, %4, %3, %2
  %.0 = phi i32 [ -1, %7 ], [ 0, %6 ], [ 7, %5 ], [ 6, %4 ], [ 4, %3 ], [ 2, %2 ], [ 1, %1 ], [ 1, %1 ], [ 1, %1 ], [ 1, %1 ]
  ret i32 %.0
}